; Function Attrs: mustprogress nounwind uwtable
define hidden void @_ZN4llvh16FoldingSetNodeID10AddIntegerEi(ptr noundef nonnull align 8 dereferenceable(144) %this, i32 noundef %I) local_unnamed_addr #0 align 2 {
entry:
  %Size.i.i = getelementptr inbounds i8, ptr %this, i64 8
  %0 = load i32, ptr %Size.i.i, align 8
  %Capacity.i.i = getelementptr inbounds i8, ptr %this, i64 12
  %1 = load i32, ptr %Capacity.i.i, align 4
  %cmp.not.i = icmp ult i32 %0, %1
  br i1 %cmp.not.i, label %_ZN4llvh23SmallVectorTemplateBaseIjLb1EE9push_backERKj.exit, label %if.then.i

if.then.i:                                        ; preds = %entry
  %add.ptr.i.i.i.i = getelementptr inbounds i8, ptr %this, i64 16
  tail call void @_ZN4llvh15SmallVectorBase8grow_podEPvmm(ptr noundef nonnull align 8 dereferenceable(16) %this, ptr noundef nonnull %add.ptr.i.i.i.i, i64 noundef 0, i64 noundef 4) #21
  %.pre.i = load i32, ptr %Size.i.i, align 8
  br label %_ZN4llvh23SmallVectorTemplateBaseIjLb1EE9push_backERKj.exit

_ZN4llvh23SmallVectorTemplateBaseIjLb1EE9push_backERKj.exit: ; preds = %entry, %if.then.i
  %2 = phi i32 [ %.pre.i, %if.then.i ], [ %0, %entry ]
  %3 = load ptr, ptr %this, align 8
  %conv.i3.i = zext i32 %2 to i64
  %add.ptr.i.i = getelementptr inbounds i32, ptr %3, i64 %conv.i3.i
  store i32 %I, ptr %add.ptr.i.i, align 1
  %4 = load i32, ptr %Size.i.i, align 8
  %add.i = add i32 %4, 1
  store i32 %add.i, ptr %Size.i.i, align 8
  ret void
}